target datalayout = "e-m:e-p270:32:32-p271:32:32-p272:64:64-i64:64-i128:128-f80:128-n8:16:32:64-S128"
target triple = "x86_64-pc-linux-gnu"

%struct.Complex = type { double, double }
%struct.Qureg = type { i32, i32, i32, i64, i64, i32, i32, %struct.ComplexArray, %struct.ComplexArray, %struct.ComplexArray, ptr, ptr, ptr, ptr, ptr, ptr }
%struct.ComplexArray = type { ptr, ptr }

@__const.statevec_applyPauliSum.iden = private unnamed_addr constant %struct.Complex { double 1.000000e+00, double 0.000000e+00 }, align 8

; Function Attrs: nounwind uwtable
define void @statevec_pauliZ(ptr noundef byval(%struct.Qureg) align 8 %0, i32 noundef %1) #0 {
  %3 = alloca i32, align 4
  %4 = alloca %struct.Complex, align 8
  store i32 %1, ptr %3, align 4, !tbaa !9
  call void @llvm.lifetime.start.p0(i64 16, ptr %4) #8
  %5 = getelementptr inbounds nuw %struct.Complex, ptr %4, i32 0, i32 0
  store double -1.000000e+00, ptr %5, align 8, !tbaa !19
  %6 = getelementptr inbounds nuw %struct.Complex, ptr %4, i32 0, i32 1
  store double 0.000000e+00, ptr %6, align 8, !tbaa !21
  %7 = load i32, ptr %3, align 4, !tbaa !9
  %8 = getelementptr inbounds nuw { double, double }, ptr %4, i32 0, i32 0
  %9 = load double, ptr %8, align 8
  %10 = getelementptr inbounds nuw { double, double }, ptr %4, i32 0, i32 1
  %11 = load double, ptr %10, align 8
  call void @statevec_phaseShiftByTerm(ptr noundef byval(%struct.Qureg) align 8 %0, i32 noundef %7, double %9, double %11)
  call void @llvm.lifetime.end.p0(i64 16, ptr %4) #8
  ret void
}

; Function Attrs: nounwind uwtable
define void @statevec_applyPauliProd(ptr noundef byval(%struct.Qureg) align 8 %0, ptr noundef %1, ptr noundef %2, i32 noundef %3) #0 {
  %5 = alloca ptr, align 8
  %6 = alloca ptr, align 8
  %7 = alloca i32, align 4
  %8 = alloca i32, align 4
  store ptr %1, ptr %5, align 8, !tbaa !4
  store ptr %2, ptr %6, align 8, !tbaa !52
  store i32 %3, ptr %7, align 4, !tbaa !9
  call void @llvm.lifetime.start.p0(i64 4, ptr %8) #8
  store i32 0, ptr %8, align 4, !tbaa !9
  br label %9

9:                                                ; preds = %54, %4
  %10 = load i32, ptr %8, align 4, !tbaa !9
  %11 = load i32, ptr %7, align 4, !tbaa !9
  %12 = icmp slt i32 %10, %11
  br i1 %12, label %14, label %13

13:                                               ; preds = %9
  call void @llvm.lifetime.end.p0(i64 4, ptr %8) #8
  br label %57

14:                                               ; preds = %9
  %15 = load ptr, ptr %6, align 8, !tbaa !52
  %16 = load i32, ptr %8, align 4, !tbaa !9
  %17 = sext i32 %16 to i64
  %18 = getelementptr inbounds i32, ptr %15, i64 %17
  %19 = load i32, ptr %18, align 4, !tbaa !9
  %20 = icmp eq i32 %19, 1
  br i1 %20, label %21, label %27

21:                                               ; preds = %14
  %22 = load ptr, ptr %5, align 8, !tbaa !4
  %23 = load i32, ptr %8, align 4, !tbaa !9
  %24 = sext i32 %23 to i64
  %25 = getelementptr inbounds i32, ptr %22, i64 %24
  %26 = load i32, ptr %25, align 4, !tbaa !9
  call void @statevec_pauliX(ptr noundef byval(%struct.Qureg) align 8 %0, i32 noundef %26)
  br label %27

27:                                               ; preds = %21, %14
  %28 = load ptr, ptr %6, align 8, !tbaa !52
  %29 = load i32, ptr %8, align 4, !tbaa !9
  %30 = sext i32 %29 to i64
  %31 = getelementptr inbounds i32, ptr %28, i64 %30
  %32 = load i32, ptr %31, align 4, !tbaa !9
  %33 = icmp eq i32 %32, 2
  br i1 %33, label %34, label %40

34:                                               ; preds = %27
  %35 = load ptr, ptr %5, align 8, !tbaa !4
  %36 = load i32, ptr %8, align 4, !tbaa !9
  %37 = sext i32 %36 to i64
  %38 = getelementptr inbounds i32, ptr %35, i64 %37
  %39 = load i32, ptr %38, align 4, !tbaa !9
  call void @statevec_pauliY(ptr noundef byval(%struct.Qureg) align 8 %0, i32 noundef %39)
  br label %40

40:                                               ; preds = %34, %27
  %41 = load ptr, ptr %6, align 8, !tbaa !52
  %42 = load i32, ptr %8, align 4, !tbaa !9
  %43 = sext i32 %42 to i64
  %44 = getelementptr inbounds i32, ptr %41, i64 %43
  %45 = load i32, ptr %44, align 4, !tbaa !9
  %46 = icmp eq i32 %45, 3
  br i1 %46, label %47, label %53

47:                                               ; preds = %40
  %48 = load ptr, ptr %5, align 8, !tbaa !4
  %49 = load i32, ptr %8, align 4, !tbaa !9
  %50 = sext i32 %49 to i64
  %51 = getelementptr inbounds i32, ptr %48, i64 %50
  %52 = load i32, ptr %51, align 4, !tbaa !9
  call void @statevec_pauliZ(ptr noundef byval(%struct.Qureg) align 8 %0, i32 noundef %52)
  br label %53

53:                                               ; preds = %47, %40
  br label %54

54:                                               ; preds = %53
  %55 = load i32, ptr %8, align 4, !tbaa !9
  %56 = add nsw i32 %55, 1
  store i32 %56, ptr %8, align 4, !tbaa !9
  br label %9

57:                                               ; preds = %13
  ret void
}

; Function Attrs: nounwind uwtable
define void @statevec_applyPauliSum(ptr noundef byval(%struct.Qureg) align 8 %0, ptr noundef %1, ptr noundef %2, i32 noundef %3, ptr noundef byval(%struct.Qureg) align 8 %4) #0 {
  %6 = alloca ptr, align 8
  %7 = alloca ptr, align 8
  %8 = alloca i32, align 4
  %9 = alloca i32, align 4
  %10 = alloca [100 x i32], align 16
  %11 = alloca i32, align 4
  %12 = alloca i32, align 4
  %13 = alloca %struct.Complex, align 8
  %14 = alloca %struct.Complex, align 8
  %15 = alloca %struct.Complex, align 8
  store ptr %1, ptr %6, align 8, !tbaa !52
  store ptr %2, ptr %7, align 8, !tbaa !27
  store i32 %3, ptr %8, align 4, !tbaa !9
  call void @llvm.lifetime.start.p0(i64 4, ptr %9) #8
  %16 = getelementptr inbounds nuw %struct.Qureg, ptr %0, i32 0, i32 1
  %17 = load i32, ptr %16, align 4, !tbaa !55
  store i32 %17, ptr %9, align 4, !tbaa !9
  call void @llvm.lifetime.start.p0(i64 400, ptr %10) #8
  call void @llvm.lifetime.start.p0(i64 4, ptr %11) #8
  store i32 0, ptr %11, align 4, !tbaa !9
  br label %18

18:                                               ; preds = %28, %5
  %19 = load i32, ptr %11, align 4, !tbaa !9
  %20 = load i32, ptr %9, align 4, !tbaa !9
  %21 = icmp slt i32 %19, %20
  br i1 %21, label %23, label %22

22:                                               ; preds = %18
  call void @llvm.lifetime.end.p0(i64 4, ptr %11) #8
  br label %31

23:                                               ; preds = %18
  %24 = load i32, ptr %11, align 4, !tbaa !9
  %25 = load i32, ptr %11, align 4, !tbaa !9
  %26 = sext i32 %25 to i64
  %27 = getelementptr inbounds [100 x i32], ptr %10, i64 0, i64 %26
  store i32 %24, ptr %27, align 4, !tbaa !9
  br label %28

28:                                               ; preds = %23
  %29 = load i32, ptr %11, align 4, !tbaa !9
  %30 = add nsw i32 %29, 1
  store i32 %30, ptr %11, align 4, !tbaa !9
  br label %18

31:                                               ; preds = %22
  call void @statevec_initBlankState(ptr noundef byval(%struct.Qureg) align 8 %4)
  call void @llvm.lifetime.start.p0(i64 4, ptr %12) #8
  store i32 0, ptr %12, align 4, !tbaa !9
  br label %32

32:                                               ; preds = %73, %31
  %33 = load i32, ptr %12, align 4, !tbaa !9
  %34 = load i32, ptr %8, align 4, !tbaa !9
  %35 = icmp slt i32 %33, %34
  br i1 %35, label %37, label %36

36:                                               ; preds = %32
  call void @llvm.lifetime.end.p0(i64 4, ptr %12) #8
  br label %76

37:                                               ; preds = %32
  call void @llvm.lifetime.start.p0(i64 16, ptr %13) #8
  %38 = getelementptr inbounds nuw %struct.Complex, ptr %13, i32 0, i32 0
  %39 = load ptr, ptr %7, align 8, !tbaa !27
  %40 = load i32, ptr %12, align 4, !tbaa !9
  %41 = sext i32 %40 to i64
  %42 = getelementptr inbounds double, ptr %39, i64 %41
  %43 = load double, ptr %42, align 8, !tbaa !18
  store double %43, ptr %38, align 8, !tbaa !19
  %44 = getelementptr inbounds nuw %struct.Complex, ptr %13, i32 0, i32 1
  store double 0.000000e+00, ptr %44, align 8, !tbaa !21
  call void @llvm.lifetime.start.p0(i64 16, ptr %14) #8
  call void @llvm.memcpy.p0.p0.i64(ptr align 8 %14, ptr align 8 @__const.statevec_applyPauliSum.iden, i64 16, i1 false)
  call void @llvm.lifetime.start.p0(i64 16, ptr %15) #8
  call void @llvm.memset.p0.i64(ptr align 8 %15, i8 0, i64 16, i1 false)
  %45 = getelementptr inbounds [100 x i32], ptr %10, i64 0, i64 0
  %46 = load ptr, ptr %6, align 8, !tbaa !52
  %47 = load i32, ptr %12, align 4, !tbaa !9
  %48 = load i32, ptr %9, align 4, !tbaa !9
  %49 = mul nsw i32 %47, %48
  %50 = sext i32 %49 to i64
  %51 = getelementptr inbounds i32, ptr %46, i64 %50
  %52 = load i32, ptr %9, align 4, !tbaa !9
  call void @statevec_applyPauliProd(ptr noundef byval(%struct.Qureg) align 8 %0, ptr noundef %45, ptr noundef %51, i32 noundef %52)
  %53 = getelementptr inbounds nuw { double, double }, ptr %13, i32 0, i32 0
  %54 = load double, ptr %53, align 8
  %55 = getelementptr inbounds nuw { double, double }, ptr %13, i32 0, i32 1
  %56 = load double, ptr %55, align 8
  %57 = getelementptr inbounds nuw { double, double }, ptr %14, i32 0, i32 0
  %58 = load double, ptr %57, align 8
  %59 = getelementptr inbounds nuw { double, double }, ptr %14, i32 0, i32 1
  %60 = load double, ptr %59, align 8
  %61 = getelementptr inbounds nuw { double, double }, ptr %15, i32 0, i32 0
  %62 = load double, ptr %61, align 8
  %63 = getelementptr inbounds nuw { double, double }, ptr %15, i32 0, i32 1
  %64 = load double, ptr %63, align 8
  call void @statevec_setWeightedQureg(double %54, double %56, ptr noundef byval(%struct.Qureg) align 8 %0, double %58, double %60, ptr noundef byval(%struct.Qureg) align 8 %4, double %62, double %64, ptr noundef byval(%struct.Qureg) align 8 %4)
  %65 = getelementptr inbounds [100 x i32], ptr %10, i64 0, i64 0
  %66 = load ptr, ptr %6, align 8, !tbaa !52
  %67 = load i32, ptr %12, align 4, !tbaa !9
  %68 = load i32, ptr %9, align 4, !tbaa !9
  %69 = mul nsw i32 %67, %68
  %70 = sext i32 %69 to i64
  %71 = getelementptr inbounds i32, ptr %66, i64 %70
  %72 = load i32, ptr %9, align 4, !tbaa !9
  call void @statevec_applyPauliProd(ptr noundef byval(%struct.Qureg) align 8 %0, ptr noundef %65, ptr noundef %71, i32 noundef %72)
  call void @llvm.lifetime.end.p0(i64 16, ptr %15) #8
  call void @llvm.lifetime.end.p0(i64 16, ptr %14) #8
  call void @llvm.lifetime.end.p0(i64 16, ptr %13) #8
  br label %73

73:                                               ; preds = %37
  %74 = load i32, ptr %12, align 4, !tbaa !9
  %75 = add nsw i32 %74, 1
  store i32 %75, ptr %12, align 4, !tbaa !9
  br label %32

76:                                               ; preds = %36
  call void @llvm.lifetime.end.p0(i64 400, ptr %10) #8
  call void @llvm.lifetime.end.p0(i64 4, ptr %9) #8
  ret void
}