; Function Attrs: nounwind uwtable
define void @statevec_applyPauliSum(ptr noundef readonly byval(%struct.Qureg) align 8 captures(none) %0, ptr noundef readonly captures(none) %1, ptr noundef readonly captures(none) %2, i32 noundef %3, ptr noundef readonly byval(%struct.Qureg) align 8 captures(none) %4) local_unnamed_addr #11 {
  %6 = alloca [100 x i32], align 16
  %7 = getelementptr inbounds nuw i8, ptr %0, i64 4
  %8 = load i32, ptr %7, align 4, !tbaa !40
  call void @llvm.lifetime.start.p0(i64 400, ptr nonnull %6) #22
  %9 = icmp sgt i32 %8, 0
  br i1 %9, label %.lr.ph.preheader, label %._crit_edge.thread

.lr.ph.preheader:                                 ; preds = %5
  %wide.trip.count = zext nneg i32 %8 to i64
  br label %.lr.ph

._crit_edge:                                      ; preds = %.lr.ph
  tail call void @statevec_initBlankState(ptr noundef nonnull byval(%struct.Qureg) align 8 %4) #22
  %10 = icmp sgt i32 %3, 0
  br i1 %10, label %.lr.ph35, label %._crit_edge36

._crit_edge.thread:                               ; preds = %5
  tail call void @statevec_initBlankState(ptr noundef nonnull byval(%struct.Qureg) align 8 %4) #22
  %11 = icmp sgt i32 %3, 0
  br i1 %11, label %statevec_applyPauliProd.exit.thread.preheader, label %._crit_edge36

.lr.ph35:                                         ; preds = %._crit_edge
  %wide.trip.count.i = zext nneg i32 %8 to i64
  %wide.trip.count47 = zext nneg i32 %3 to i64
  br label %.lr.ph.preheader.i.us

statevec_applyPauliProd.exit.thread.preheader:    ; preds = %._crit_edge.thread
  %wide.trip.count42 = zext nneg i32 %3 to i64
  br label %statevec_applyPauliProd.exit.thread

.lr.ph.preheader.i.us:                            ; preds = %.lr.ph35, %statevec_applyPauliProd.exit31.loopexit.us
  %indvars.iv44 = phi i64 [ 0, %.lr.ph35 ], [ %indvars.iv.next45, %statevec_applyPauliProd.exit31.loopexit.us ]
  %12 = getelementptr inbounds nuw double, ptr %2, i64 %indvars.iv44
  %13 = load double, ptr %12, align 8, !tbaa !13
  %14 = mul nuw nsw i64 %indvars.iv44, %wide.trip.count.i
  %15 = getelementptr inbounds nuw i32, ptr %1, i64 %14
  br label %.lr.ph.i.us

.lr.ph.i.us:                                      ; preds = %34, %.lr.ph.preheader.i.us
  %indvars.iv.i.us = phi i64 [ 0, %.lr.ph.preheader.i.us ], [ %indvars.iv.next.i.us, %34 ]
  %16 = getelementptr inbounds nuw i32, ptr %15, i64 %indvars.iv.i.us
  %17 = load i32, ptr %16, align 4, !tbaa !4
  %18 = icmp eq i32 %17, 1
  br i1 %18, label %19, label %22

19:                                               ; preds = %.lr.ph.i.us
  %20 = getelementptr inbounds nuw i32, ptr %6, i64 %indvars.iv.i.us
  %21 = load i32, ptr %20, align 4, !tbaa !4
  tail call void @statevec_pauliX(ptr noundef nonnull byval(%struct.Qureg) align 8 %0, i32 noundef %21) #22
  %.pr.i.us = load i32, ptr %16, align 4, !tbaa !4
  br label %22

22:                                               ; preds = %19, %.lr.ph.i.us
  %23 = phi i32 [ %.pr.i.us, %19 ], [ %17, %.lr.ph.i.us ]
  %24 = icmp eq i32 %23, 2
  br i1 %24, label %25, label %28

25:                                               ; preds = %22
  %26 = getelementptr inbounds nuw i32, ptr %6, i64 %indvars.iv.i.us
  %27 = load i32, ptr %26, align 4, !tbaa !4
  tail call void @statevec_pauliY(ptr noundef nonnull byval(%struct.Qureg) align 8 %0, i32 noundef %27) #22
  %.pre.i.us = load i32, ptr %16, align 4, !tbaa !4
  br label %28

28:                                               ; preds = %25, %22
  %29 = phi i32 [ %.pre.i.us, %25 ], [ %23, %22 ]
  %30 = icmp eq i32 %29, 3
  br i1 %30, label %31, label %34

31:                                               ; preds = %28
  %32 = getelementptr inbounds nuw i32, ptr %6, i64 %indvars.iv.i.us
  %33 = load i32, ptr %32, align 4, !tbaa !4
  tail call void @statevec_phaseShiftByTerm(ptr noundef nonnull byval(%struct.Qureg) align 8 %0, i32 noundef %33, double -1.000000e+00, double 0.000000e+00) #22
  br label %34

34:                                               ; preds = %31, %28
  %indvars.iv.next.i.us = add nuw nsw i64 %indvars.iv.i.us, 1
  %exitcond.not.i.us = icmp eq i64 %indvars.iv.next.i.us, %wide.trip.count.i
  br i1 %exitcond.not.i.us, label %statevec_applyPauliProd.exit.us, label %.lr.ph.i.us

statevec_applyPauliProd.exit.us:                  ; preds = %34
  tail call void @statevec_setWeightedQureg(double %13, double 0.000000e+00, ptr noundef nonnull byval(%struct.Qureg) align 8 %0, double 1.000000e+00, double 0.000000e+00, ptr noundef nonnull byval(%struct.Qureg) align 8 %4, double 0.000000e+00, double 0.000000e+00, ptr noundef nonnull byval(%struct.Qureg) align 8 %4) #22
  br label %.lr.ph.i25.us

.lr.ph.i25.us:                                    ; preds = %53, %statevec_applyPauliProd.exit.us
  %indvars.iv.i26.us = phi i64 [ 0, %statevec_applyPauliProd.exit.us ], [ %indvars.iv.next.i27.us, %53 ]
  %35 = getelementptr inbounds nuw i32, ptr %15, i64 %indvars.iv.i26.us
  %36 = load i32, ptr %35, align 4, !tbaa !4
  %37 = icmp eq i32 %36, 1
  br i1 %37, label %38, label %41

38:                                               ; preds = %.lr.ph.i25.us
  %39 = getelementptr inbounds nuw i32, ptr %6, i64 %indvars.iv.i26.us
  %40 = load i32, ptr %39, align 4, !tbaa !4
  tail call void @statevec_pauliX(ptr noundef nonnull byval(%struct.Qureg) align 8 %0, i32 noundef %40) #22
  %.pr.i30.us = load i32, ptr %35, align 4, !tbaa !4
  br label %41

41:                                               ; preds = %38, %.lr.ph.i25.us
  %42 = phi i32 [ %.pr.i30.us, %38 ], [ %36, %.lr.ph.i25.us ]
  %43 = icmp eq i32 %42, 2
  br i1 %43, label %44, label %47

44:                                               ; preds = %41
  %45 = getelementptr inbounds nuw i32, ptr %6, i64 %indvars.iv.i26.us
  %46 = load i32, ptr %45, align 4, !tbaa !4
  tail call void @statevec_pauliY(ptr noundef nonnull byval(%struct.Qureg) align 8 %0, i32 noundef %46) #22
  %.pre.i29.us = load i32, ptr %35, align 4, !tbaa !4
  br label %47

47:                                               ; preds = %44, %41
  %48 = phi i32 [ %.pre.i29.us, %44 ], [ %42, %41 ]
  %49 = icmp eq i32 %48, 3
  br i1 %49, label %50, label %53

50:                                               ; preds = %47
  %51 = getelementptr inbounds nuw i32, ptr %6, i64 %indvars.iv.i26.us
  %52 = load i32, ptr %51, align 4, !tbaa !4
  tail call void @statevec_phaseShiftByTerm(ptr noundef nonnull byval(%struct.Qureg) align 8 %0, i32 noundef %52, double -1.000000e+00, double 0.000000e+00) #22
  br label %53

53:                                               ; preds = %50, %47
  %indvars.iv.next.i27.us = add nuw nsw i64 %indvars.iv.i26.us, 1
  %exitcond.not.i28.us = icmp eq i64 %indvars.iv.next.i27.us, %wide.trip.count.i
  br i1 %exitcond.not.i28.us, label %statevec_applyPauliProd.exit31.loopexit.us, label %.lr.ph.i25.us

statevec_applyPauliProd.exit31.loopexit.us:       ; preds = %53
  %indvars.iv.next45 = add nuw nsw i64 %indvars.iv44, 1
  %exitcond48.not = icmp eq i64 %indvars.iv.next45, %wide.trip.count47
  br i1 %exitcond48.not, label %._crit_edge36, label %.lr.ph.preheader.i.us

.lr.ph:                                           ; preds = %.lr.ph.preheader, %.lr.ph
  %indvars.iv = phi i64 [ 0, %.lr.ph.preheader ], [ %indvars.iv.next, %.lr.ph ]
  %54 = getelementptr inbounds nuw [100 x i32], ptr %6, i64 0, i64 %indvars.iv
  %55 = trunc nuw nsw i64 %indvars.iv to i32
  store i32 %55, ptr %54, align 4, !tbaa !4
  %indvars.iv.next = add nuw nsw i64 %indvars.iv, 1
  %exitcond.not = icmp eq i64 %indvars.iv.next, %wide.trip.count
  br i1 %exitcond.not, label %._crit_edge, label %.lr.ph

._crit_edge36:                                    ; preds = %statevec_applyPauliProd.exit.thread, %statevec_applyPauliProd.exit31.loopexit.us, %._crit_edge.thread, %._crit_edge
  call void @llvm.lifetime.end.p0(i64 400, ptr nonnull %6) #22
  ret void

statevec_applyPauliProd.exit.thread:              ; preds = %statevec_applyPauliProd.exit.thread.preheader, %statevec_applyPauliProd.exit.thread
  %indvars.iv39 = phi i64 [ 0, %statevec_applyPauliProd.exit.thread.preheader ], [ %indvars.iv.next40, %statevec_applyPauliProd.exit.thread ]
  %56 = getelementptr inbounds nuw double, ptr %2, i64 %indvars.iv39
  %57 = load double, ptr %56, align 8, !tbaa !13
  tail call void @statevec_setWeightedQureg(double %57, double 0.000000e+00, ptr noundef nonnull byval(%struct.Qureg) align 8 %0, double 1.000000e+00, double 0.000000e+00, ptr noundef nonnull byval(%struct.Qureg) align 8 %4, double 0.000000e+00, double 0.000000e+00, ptr noundef nonnull byval(%struct.Qureg) align 8 %4) #22
  %indvars.iv.next40 = add nuw nsw i64 %indvars.iv39, 1
  %exitcond43.not = icmp eq i64 %indvars.iv.next40, %wide.trip.count42
  br i1 %exitcond43.not, label %._crit_edge36, label %statevec_applyPauliProd.exit.thread
}